; Function Attrs: nounwind uwtable
define ptr @l_List_lengthTRAux___rarg(ptr noundef %0, ptr noundef %1) local_unnamed_addr #0 {
  br label %lean_dec.exit

lean_dec.exit:                                    ; preds = %lean_dec.exit.backedge, %2
  %.08 = phi ptr [ %1, %2 ], [ %.08.be, %lean_dec.exit.backedge ]
  %.0 = phi ptr [ %0, %2 ], [ %15, %lean_dec.exit.backedge ]
  %3 = ptrtoint ptr %.0 to i64
  %4 = and i64 %3, 1
  %.not.i9 = icmp eq i64 %4, 0
  br i1 %.not.i9, label %8, label %5

5:                                                ; preds = %lean_dec.exit
  %6 = lshr i64 %3, 1
  %7 = trunc i64 %6 to i32
  br label %lean_obj_tag.exit

8:                                                ; preds = %lean_dec.exit
  %9 = getelementptr i8, ptr %.0, i64 4
  %.val.i = load i32, ptr %9, align 4
  %10 = lshr i32 %.val.i, 24
  br label %lean_obj_tag.exit

lean_obj_tag.exit:                                ; preds = %5, %8
  %.0.i10 = phi i32 [ %7, %5 ], [ %10, %8 ]
  %11 = icmp eq i32 %.0.i10, 0
  br i1 %11, label %12, label %13

12:                                               ; preds = %lean_obj_tag.exit
  ret ptr %.08

13:                                               ; preds = %lean_obj_tag.exit
  %14 = getelementptr inbounds nuw i8, ptr %.0, i64 16
  %15 = load ptr, ptr %14, align 8, !tbaa !10
  %16 = ptrtoint ptr %.08 to i64
  %17 = and i64 %16, 1
  %.not = icmp eq i64 %17, 0
  br i1 %.not, label %28, label %18, !prof !15

18:                                               ; preds = %13
  %19 = lshr i64 %16, 1
  %20 = add nuw i64 %19, 1
  %21 = icmp sgt i64 %20, -1
  br i1 %21, label %22, label %26, !prof !9

22:                                               ; preds = %18
  %23 = shl nuw i64 %20, 1
  %24 = or disjoint i64 %23, 1
  %25 = inttoptr i64 %24 to ptr
  br label %lean_dec.exit.backedge

lean_dec.exit.backedge:                           ; preds = %22, %26, %35, %34, %32
  %.08.be = phi ptr [ %29, %32 ], [ %29, %34 ], [ %29, %35 ], [ %27, %26 ], [ %25, %22 ]
  br label %lean_dec.exit

26:                                               ; preds = %18
  %27 = tail call ptr @lean_big_usize_to_nat(i64 noundef %20) #11
  br label %lean_dec.exit.backedge

28:                                               ; preds = %13
  %29 = tail call ptr @lean_nat_big_add(ptr noundef %.08, ptr noundef nonnull inttoptr (i64 3 to ptr)) #11
  %30 = load i32, ptr %.08, align 4, !tbaa !4
  %31 = icmp sgt i32 %30, 1
  br i1 %31, label %32, label %34, !prof !9

32:                                               ; preds = %28
  %33 = add nsw i32 %30, -1
  store i32 %33, ptr %.08, align 4, !tbaa !4
  br label %lean_dec.exit.backedge

34:                                               ; preds = %28
  %.not.i = icmp eq i32 %30, 0
  br i1 %.not.i, label %lean_dec.exit.backedge, label %35

35:                                               ; preds = %34
  tail call void @lean_dec_ref_cold(ptr noundef nonnull %.08) #11
  br label %lean_dec.exit.backedge
}